; Function Attrs: mustprogress uwtable
define void @_ZN5folly10SSLContext16setTicketHandlerESt10unique_ptrINS_20OpenSSLTicketHandlerESt14default_deleteIS2_EE(ptr noundef nonnull align 8 captures(none) dereferenceable(304) %0, ptr noundef captures(none) %1) local_unnamed_addr #2 align 2 {
  %3 = getelementptr inbounds nuw i8, ptr %0, i64 152
  %4 = load ptr, ptr %1, align 8, !tbaa !176
  store ptr null, ptr %1, align 8, !tbaa !176
  %5 = load ptr, ptr %3, align 8, !tbaa !176
  store ptr %4, ptr %3, align 8, !tbaa !176
  %.not.i.i.i.i = icmp eq ptr %5, null
  br i1 %.not.i.i.i.i, label %_ZNSt10unique_ptrIN5folly20OpenSSLTicketHandlerESt14default_deleteIS1_EEaSEOS4_.exit, label %_ZNKSt14default_deleteIN5folly20OpenSSLTicketHandlerEEclEPS1_.exit.i.i.i.i

_ZNKSt14default_deleteIN5folly20OpenSSLTicketHandlerEEclEPS1_.exit.i.i.i.i: ; preds = %2
  %6 = load ptr, ptr %5, align 8, !tbaa !7
  %7 = getelementptr inbounds nuw i8, ptr %6, i64 8
  %8 = load ptr, ptr %7, align 8
  tail call void %8(ptr noundef nonnull align 8 dereferenceable(8) %5) #29
  br label %_ZNSt10unique_ptrIN5folly20OpenSSLTicketHandlerESt14default_deleteIS1_EEaSEOS4_.exit

_ZNSt10unique_ptrIN5folly20OpenSSLTicketHandlerESt14default_deleteIS1_EEaSEOS4_.exit: ; preds = %2, %_ZNKSt14default_deleteIN5folly20OpenSSLTicketHandlerEEclEPS1_.exit.i.i.i.i
  %9 = getelementptr inbounds nuw i8, ptr %0, i64 8
  %10 = load ptr, ptr %9, align 8, !tbaa !10
  %11 = tail call i64 @SSL_CTX_callback_ctrl(ptr noundef %10, i32 noundef 72, ptr noundef nonnull @_ZN5folly12_GLOBAL__N_120dispatchTicketCryptoEP6ssl_stPhS3_P17evp_cipher_ctx_stP11hmac_ctx_sti)
  ret void
}